; Function Attrs: mustprogress uwtable
define void @_ZN5folly20IOThreadPoolExecutorC1EmSt10shared_ptrINS_13ThreadFactoryEEPNS_16EventBaseManagerENS0_7OptionsE(ptr noundef nonnull align 64 dereferenceable(568) initializes((0, 8)) %0, i64 noundef %1, ptr noundef captures(none) %2, ptr noundef %3, i16 %4) unnamed_addr #2 align 2 personality ptr @__gxx_personality_v0 {
  %6 = alloca %"class.std::shared_ptr.6", align 8
  %7 = load i8, ptr @_ZN3fLB34FLAGS_dynamic_iothreadpoolexecutorE, align 1, !tbaa !253, !range !211, !noundef !212
  %8 = trunc nuw i8 %7 to i1
  %9 = select i1 %8, i64 0, i64 %1
  %10 = load ptr, ptr %2, align 8, !tbaa !254
  store ptr %10, ptr %6, align 8, !tbaa !254
  %11 = getelementptr inbounds nuw i8, ptr %6, i64 8
  %12 = getelementptr inbounds nuw i8, ptr %2, i64 8
  %13 = load ptr, ptr %12, align 8, !tbaa !46
  store ptr null, ptr %12, align 8, !tbaa !46
  store ptr %13, ptr %11, align 8, !tbaa !46
  store ptr null, ptr %2, align 8, !tbaa !254
  invoke void @_ZN5folly20IOThreadPoolExecutorC1EmmSt10shared_ptrINS_13ThreadFactoryEEPNS_16EventBaseManagerENS0_7OptionsE(ptr noundef nonnull align 64 dereferenceable(568) %0, i64 noundef %1, i64 noundef %9, ptr noundef nonnull %6, ptr noundef %3, i16 %4)
          to label %14 unwind label %37

14:                                               ; preds = %5
  %15 = load ptr, ptr %11, align 8, !tbaa !46
  %.not.i.i = icmp eq ptr %15, null
  br i1 %.not.i.i, label %_ZNSt12__shared_ptrIN5folly13ThreadFactoryELN9__gnu_cxx12_Lock_policyE2EED2Ev.exit, label %16

16:                                               ; preds = %14
  %17 = getelementptr inbounds nuw i8, ptr %15, i64 8
  %18 = load atomic i64, ptr %17 acquire, align 8
  %19 = icmp eq i64 %18, 4294967297
  %20 = trunc i64 %18 to i32
  br i1 %19, label %21, label %29

21:                                               ; preds = %16
  store i32 0, ptr %17, align 8, !tbaa !21
  %22 = getelementptr inbounds nuw i8, ptr %15, i64 12
  store i32 0, ptr %22, align 4, !tbaa !24
  %23 = load ptr, ptr %15, align 8, !tbaa !25
  %24 = getelementptr inbounds nuw i8, ptr %23, i64 16
  %25 = load ptr, ptr %24, align 8
  tail call void %25(ptr noundef nonnull align 8 dereferenceable(16) %15) #25
  %26 = load ptr, ptr %15, align 8, !tbaa !25
  %27 = getelementptr inbounds nuw i8, ptr %26, i64 24
  %28 = load ptr, ptr %27, align 8
  tail call void %28(ptr noundef nonnull align 8 dereferenceable(16) %15) #25
  br label %_ZNSt12__shared_ptrIN5folly13ThreadFactoryELN9__gnu_cxx12_Lock_policyE2EED2Ev.exit

29:                                               ; preds = %16
  %30 = load i8, ptr @__libc_single_threaded, align 1, !tbaa !48
  %.not.i.i.i = icmp eq i8 %30, 0
  br i1 %.not.i.i.i, label %33, label %31

31:                                               ; preds = %29
  %32 = add nsw i32 %20, -1
  store i32 %32, ptr %17, align 4, !tbaa !60
  br label %_ZN9__gnu_cxx27__exchange_and_add_dispatchEPii.exit.i.i.i

33:                                               ; preds = %29
  %34 = atomicrmw volatile add ptr %17, i32 -1 acq_rel, align 4
  br label %_ZN9__gnu_cxx27__exchange_and_add_dispatchEPii.exit.i.i.i

_ZN9__gnu_cxx27__exchange_and_add_dispatchEPii.exit.i.i.i: ; preds = %33, %31
  %.0.i.i.i.i = phi i32 [ %20, %31 ], [ %34, %33 ]
  %35 = icmp eq i32 %.0.i.i.i.i, 1
  br i1 %35, label %36, label %_ZNSt12__shared_ptrIN5folly13ThreadFactoryELN9__gnu_cxx12_Lock_policyE2EED2Ev.exit, !prof !91

36:                                               ; preds = %_ZN9__gnu_cxx27__exchange_and_add_dispatchEPii.exit.i.i.i
  tail call void @_ZNSt16_Sp_counted_baseILN9__gnu_cxx12_Lock_policyE2EE24_M_release_last_use_coldEv(ptr noundef nonnull align 8 dereferenceable(16) %15) #25
  br label %_ZNSt12__shared_ptrIN5folly13ThreadFactoryELN9__gnu_cxx12_Lock_policyE2EED2Ev.exit

_ZNSt12__shared_ptrIN5folly13ThreadFactoryELN9__gnu_cxx12_Lock_policyE2EED2Ev.exit: ; preds = %14, %21, %_ZN9__gnu_cxx27__exchange_and_add_dispatchEPii.exit.i.i.i, %36
  ret void

37:                                               ; preds = %5
  %38 = landingpad { ptr, i32 }
          cleanup
  call void @_ZNSt12__shared_ptrIN5folly13ThreadFactoryELN9__gnu_cxx12_Lock_policyE2EED2Ev(ptr noundef nonnull align 8 dereferenceable(16) %6) #25
  resume { ptr, i32 } %38
}